(dp0
S''
p1
NsS'WA'
p2
F-7.0
sS'DE'
p3
F-4.0
sS'DC'
p4
F-4.0
sS'WI'
p5
F-5.0
sS'WV'
p6
F-4.0
sS'HI'
p7
F-10.0
sS'WY'
p8
F-6.0
sS'NH'
p9
F-4.0
sS'NJ'
p10
F-4.0
sS'NM'
p11
F-6.0
sS'LA'
p12
F-5.0
sS'NC'
p13
F-4.0
sS'NY'
p14
F-4.0
sS'PA'
p15
F-4.0
sS'RI'
p16
F-4.0
sS'NV'
p17
F-7.0
sS'VA'
p18
F-4.0
sS'GU'
p19
F10.0
sS'CO'
p20
F-6.0
sS'CA'
p21
F-7.0
sS'AL'
p22
F-5.0
sS'AP'
p23
F5.5
sS'AR'
p24
F-5.0
sS'VT'
p25
F-4.0
sS'IL'
p26
F-5.0
sS'GA'
p27
F-4.0
sS'IA'
p28
F-5.0
sS'OK'
p29
F-5.0
sS'AZ'
p30
F-7.0
sS'CT'
p31
F-4.0
sS'ME'
p32
F-4.0
sS'MD'
p33
F-4.0
sS'MA'
p34
F-4.0
sS'OH'
p35
F-4.0
sS'UT'
p36
F-6.0
sS'MO'
p37
F-5.0
sS'MN'
p38
F-5.0
sS'MT'
p39
F-6.0
sS'MS'
p40
F-5.0
sS'PR'
p41
F-4.0
sS'SC'
p42
F-4.0
s.