(dp0
S'Osprey FL'
p1
F-4.0
sS'Brighton MI'
p2
F-4.0
sS'Olathe KS'
p3
F-5.0
sS'Hobart IN'
p4
F-5.0
sS'Carmel IN'
p5
F-4.0
sS'Sterling Heights MI'
p6
F-4.0
sS'North Palm Beach FL'
p7
F-4.0
sS' '
p8
NsS'Pentwater MI'
p9
F-4.0
sS'Grapevine TX'
p10
F-5.0
sS'Antioch TN'
p11
F-5.0
sS'Haslett MI'
p12
F-4.0
sS'Troy MI'
p13
F-4.0
sS'Knoxville TN'
p14
F-4.0
sS'Lewisville TX'
p15
F-5.0
sS'Irving TX'
p16
F-5.0
sS'Brookings SD'
p17
F-5.0
sS'Wichita KS'
p18
F-5.0
sS'San Francisco CA'
p19
F-7.0
sS'East Lansing MI'
p20
F-4.0
sS'Gaithersburg MD'
p21
F-4.0
sS'Ashland NE'
p22
F-5.0
sS'Bloomfield Village MI'
p23
F-4.0
sS'Chattanooga TN'
p24
F-4.0
sS'Beatrice NE'
p25
F-5.0
sS'Friendswood TX'
p26
F-5.0
sS'Princeton NJ'
p27
F-4.0
sS'Salem OR'
p28
F-7.0
sS'Bristol TN'
p29
F-4.0
sS'Commerce Township MI'
p30
F-4.0
sS'Oviedo FL'
p31
F-4.0
sS'Rockwall TX'
p32
F-5.0
sS'Fulshear TX'
p33
F-5.0
sS'South Bend IN'
p34
F-4.0
sS'Fairway KS'
p35
F-5.0
sS'El Paso TX'
p36
F-6.0
sS'Indianapolis IN'
p37
F-4.0
sS'Georgetown KY'
p38
F-4.0
sS'McHenry IL'
p39
F-5.0
sS'Versailles KY'
p40
F-4.0
sS'Southlake TX'
p41
F-5.0
sS'Monticello IN'
p42
F-4.0
sS'Armada MI'
p43
F-4.0
sS'Kansas City KS'
p44
F-5.0
sS'West Bloomfield MI'
p45
F-4.0
sS'Grand Haven MI'
p46
F-4.0
sS'Pinecrest FL'
p47
F-4.0
sS'Brentwood TN'
p48
F-5.0
sS'Rockford MI'
p49
F-4.0
sS'Detroit MI'
p50
F-4.0
sS'Salem VA'
p51
F-4.0
sS'Chesterton IN'
p52
F-5.0
sS'Celebration FL'
p53
F-4.0
sS'Gary IN'
p54
F-5.0
sS'Farmington Hills MI'
p55
F-4.0
sS'Forest Grove OR'
p56
F-7.0
sS'Bellevue NE'
p57
F-5.0
sS'Florence KY'
p58
F-4.0
sS'Canton MI'
p59
F-4.0
sS'Ormond Beach FL'
p60
F-4.0
sS'The Villages FL'
p61
F-4.0
sS'Sylvania OH'
p62
F-4.0
sS'Austin TX'
p63
F-5.0
sS'Skokie IL'
p64
F-5.0
sS'Roeland Park KS'
p65
F-5.0
sS'College Park MD'
p66
F-4.0
sS'San Benito TX'
p67
F-5.0
sS'Goshen KY'
p68
F-4.0
sS'Collierville TN'
p69
F-5.0
sS'Boise ID'
p70
F-6.0
sS'Franklin MI'
p71
F-4.0
sS'Fishers IN'
p72
F-4.0
sS'Lincoln NE'
p73
F-5.0
sS'Wichita Falls TX'
p74
F-5.0
sS'Orlando FL'
p75
F-4.0
sS'Seattle WA'
p76
F-7.0
sS'Southfield MI'
p77
F-4.0
sS'Humble TX'
p78
F-5.0
sS'Washington DC'
p79
F-4.0
sS'Grand Island NE'
p80
F-5.0
sS'Flower Mound TX'
p81
F-5.0
sS'Windermere FL'
p82
F-4.0
sS'Michigan City IN'
p83
F-5.0
sS'West Terre Haute IN'
p84
F-4.0
sS'Lauderhill FL'
p85
F-4.0
sS'Duncanville TX'
p86
F-5.0
sS'Ypsilanti MI'
p87
F-4.0
sS'Oak Grove KY'
p88
F-5.0
sS'Hillsboro OR'
p89
F-7.0
sS'Bargersville IN'
p90
F-4.0
sS'Richmond IN'
p91
F-4.0
sS'Palm Harbor FL'
p92
F-4.0
sS'Brownsburg IN'
p93
F-4.0
sS'Haines AK'
p94
F-8.0
sS'Boynton Beach FL'
p95
F-4.0
sS'Sioux Falls SD'
p96
F-5.0
sS'Lauderdale Lakes FL'
p97
F-4.0
sS'Okemos MI'
p98
F-4.0
sS'McAllen TX'
p99
F-5.0
sS'Fargo ND'
p100
F-5.0
sS'West Lafayette IN'
p101
F-4.0
sS'Lake Orion MI'
p102
F-4.0
sS'La Porte TX'
p103
F-5.0
sS'Lincolnwood IL'
p104
F-5.0
sS'Estero FL'
p105
F-4.0
sS'San Antonio TX'
p106
F-5.0
sS'Zeeland MI'
p107
F-4.0
sS'Tualatin OR'
p108
F-7.0
sS'Leander TX'
p109
F-5.0
sS'Memphis TN'
p110
F-5.0
sS'Merritt Island FL'
p111
F-4.0
sS'Stilwell KS'
p112
F-5.0
sS'Terrell TX'
p113
F-5.0
sS'Lake Wales FL'
p114
F-4.0
sS'North Bay Village FL'
p115
F-4.0
sS'Lockport IL'
p116
F-5.0
sS'Sarasota FL'
p117
F-4.0
sS'Beaverton OR'
p118
F-7.0
sS'Los Angeles CA'
p119
F-7.0
sS'Cedar Hill TX'
p120
F-5.0
sS'Plano TX'
p121
F-5.0
sS'Royal Oak MI'
p122
F-4.0
sS'Vincennes IN'
p123
F-4.0
sS'Fort Wayne IN'
p124
F-4.0
sS'Bloomfield Hills MI'
p125
F-4.0
sS'Omaha NE'
p126
F-5.0
sS'Huntington Woods MI'
p127
F-4.0
sS'Winter Springs FL'
p128
F-4.0
sS'Delray Beach FL'
p129
F-4.0
sS'Wrangell AK'
p130
F-8.0
sS'Arlington VA'
p131
F-4.0
sS'Cedar Park TX'
p132
F-5.0
sS'Ithaca NE'
p133
F-5.0
sS'Wyckoff NJ'
p134
F-4.0
sS'New York NY'
p135
F-4.0
sS'Spring TX'
p136
F-5.0
sS'Lake Geneva WI'
p137
F-5.0
sS'Georgetown TX'
p138
F-5.0
sS'La Mirada CA'
p139
F-7.0
sS'Tequesta FL'
p140
F-4.0
sS'Wilmette IL'
p141
F-5.0
sS'Ann Arbor MI'
p142
F-4.0
sS'Frankenmuth MI'
p143
F-4.0
sS'Lake Jackson TX'
p144
F-5.0
sS'Wellington FL'
p145
F-4.0
sS'Harlingen TX'
p146
F-5.0
sS'Lowell MI'
p147
F-4.0
sS'Bryan TX'
p148
F-5.0
sS'Bethel CT'
p149
F-4.0
sS'Mishawaka IN'
p150
F-4.0
sS'Damascus OR'
p151
F-7.0
sS'Brooklyn NY'
p152
F-4.0
sS'Morehead KY'
p153
F-4.0
sS'Johnson City TN'
p154
F-4.0
sS'Boston MA'
p155
F-4.0
sS'Muskegon MI'
p156
F-4.0
sS'Harker Heights TX'
p157
F-5.0
sS'Granger IN'
p158
F-4.0
sS'Rochester Hills MI'
p159
F-4.0
sS'Moriarty NM'
p160
F-6.0
sS'Lenexa KS'
p161
F-5.0
sS'Longwood FL'
p162
F-4.0
sS'Kissimmee FL'
p163
F-4.0
sS'Signal Mountain TN'
p164
F-4.0
sS'Bedford TX'
p165
F-5.0
sS'Bradenton FL'
p166
F-4.0
sS'Apollo Beach FL'
p167
F-4.0
sS'Campbellsville KY'
p168
F-4.0
sS'Mesquite TX'
p169
F-5.0
sS'Kendallville IN'
p170
F-4.0
sS'Coral Gables FL'
p171
F-4.0
sS'Katy TX'
p172
F-5.0
sS'Lyndhurst OH'
p173
F-4.0
sS'St Petersburg FL'
p174
F-4.0
sS'Columbus OH'
p175
F-4.0
sS'Chicago IL'
p176
F-5.0
sS'Portland ME'
p177
F-4.0
sS'Lafayette IN'
p178
F-4.0
sS'Durham NC'
p179
F-4.0
sS'Lake Oswego OR'
p180
F-7.0
sS'Bloomington IN'
p181
F-4.0
sS'Boulder CO'
p182
F-6.0
sS'Albany OR'
p183
F-7.0
sS'Pleasant Ridge MI'
p184
F-4.0
sS'Russell KY'
p185
F-4.0
sS'Pearland TX'
p186
F-5.0
sS'Warsaw IN'
p187
F-4.0
sS'Battle Creek MI'
p188
F-4.0
sS'Highland Beach FL'
p189
F-4.0
sS'Arlington TX'
p190
F-5.0
sS'Prairie Village KS'
p191
F-5.0
sS'Gardner KS'
p192
F-5.0
sS'Dexter MI'
p193
F-4.0
sS'Elsa TX'
p194
F-5.0
sS'Fairbanks AK'
p195
F-8.0
sS'Elkhart IN'
p196
F-4.0
sS'Cypress TX'
p197
F-5.0
sS'Dyer IN'
p198
F-5.0
sS'Fenton MI'
p199
F-4.0
sS'Tallahassee FL'
p200
F-4.0
sS'Missouri City TX'
p201
F-5.0
sS'Benton Harbor MI'
p202
F-4.0
sS'Leawood KS'
p203
F-5.0
sS'Lake Quivira KS'
p204
F-5.0
sS'Milton FL'
p205
F-5.0
sS'Coppell TX'
p206
F-5.0
sS'Weston FL'
p207
F-4.0
sS'Abilene TX'
p208
F-5.0
sS'South Miami FL'
p209
F-4.0
sS'Lexington NE'
p210
F-5.0
sS'Fremont IN'
p211
F-4.0
sS'Palm Beach Gardens FL'
p212
F-4.0
sS'Greenwood IN'
p213
F-4.0
sS'Murphy TX'
p214
F-5.0
sS'Morton Grove IL'
p215
F-5.0
sS'Lubbock TX'
p216
F-5.0
sS'Beverly Hills MI'
p217
F-4.0
sS'New Carlisle IN'
p218
F-4.0
sS'Covington KY'
p219
F-4.0
sS'Lawrence Township NJ'
p220
F-4.0
sS'Euless TX'
p221
F-5.0
sS'Marlborough MA'
p222
F-4.0
sS'Corpus Christi TX'
p223
F-5.0
sS'Lansing MI'
p224
F-4.0
sS'Bloomington MN'
p225
F-5.0
sS'Novi MI'
p226
F-4.0
sS'Muncie IN'
p227
F-4.0
sS'Nashville TN'
p228
F-5.0
sS'Fort Worth TX'
p229
F-5.0
sS'Cincinnati OH'
p230
F-4.0
sS'Tampa FL'
p231
F-4.0
sS'Goshen IN'
p232
F-4.0
sS'Hendersonville TN'
p233
F-5.0
sS'Niles MI'
p234
F-4.0
sS'Middlebury CT'
p235
F-4.0
sS'Grand Rapids MI'
p236
F-4.0
sS'Safety Harbor FL'
p237
F-4.0
sS'Merrillville IN'
p238
F-5.0
sS'Saint Augustine FL'
p239
F-4.0
sS'Glenview IL'
p240
F-5.0
sS'Odessa TX'
p241
F-5.0
sS'Oak Lawn IL'
p242
F-5.0
sS'Shavano Park TX'
p243
F-5.0
sS'Miami FL'
p244
F-4.0
sS'Saint Petersburg FL'
p245
F-4.0
sS'Bay Harbor Islands FL'
p246
F-4.0
sS'Munster IN'
p247
F-5.0
sS'Westlake Village CA'
p248
F-7.0
sS'Kokomo IN'
p249
F-4.0
sS'Bingham Farms MI'
p250
F-4.0
sS'Buffalo Grove IL'
p251
F-5.0
sS'Boca Raton FL'
p252
F-4.0
sS'Somerville TN'
p253
F-5.0
sS'Portage MI'
p254
F-4.0
sS'Papillion NE'
p255
F-5.0
sS'Clarksville TN'
p256
F-5.0
sS'Gainesville FL'
p257
F-4.0
sS'Brandon FL'
p258
F-4.0
sS'Kalamazoo MI'
p259
F-4.0
sS'Sugar Land TX'
p260
F-5.0
sS'Zionsville IN'
p261
F-4.0
sS'Golden Beach FL'
p262
F-4.0
sS'Winter Park FL'
p263
F-4.0
sS'Eagle Point OR'
p264
F-7.0
sS'Mount Vernon IN'
p265
F-5.0
sS'Shawnee KS'
p266
F-5.0
sS'Tamarac FL'
p267
F-4.0
sS'Cambridge MA'
p268
F-4.0
sS'Birmingham MI'
p269
F-4.0
sS'Paducah KY'
p270
F-5.0
sS'Franklin TN'
p271
F-5.0
sS'Moscow ID'
p272
F-7.0
sS'Traverse City MI'
p273
F-4.0
sS'Hollywood FL'
p274
F-4.0
sS'Fayetteville GA'
p275
F-4.0
sS'Magnolia TX'
p276
F-5.0
sS'San Angelo TX'
p277
F-5.0
sS'Maitland FL'
p278
F-4.0
sS'Saint John IN'
p279
F-5.0
sS'Sea Ranch Lakes FL'
p280
F-4.0
sS'Portage IN'
p281
F-5.0
sS'Twin Falls ID'
p282
F-6.0
sS'Louisville TN'
p283
F-4.0
sS'Davie FL'
p284
F-4.0
sS'Hallandale Beach FL'
p285
F-4.0
sS'Richmond TX'
p286
F-5.0
sS'Prospect KY'
p287
F-4.0
sS'Clarkston MI'
p288
F-4.0
sS'Metamora MI'
p289
F-4.0
sS'Naples FL'
p290
F-4.0
sS'Lawrence KS'
p291
F-5.0
sS'Flint MI'
p292
F-4.0
sS'Dearborn MI'
p293
F-4.0
sS'Aventura FL'
p294
F-4.0
sS'Louisville KY'
p295
F-4.0
sS'Lake Mary FL'
p296
F-4.0
sS'Grand Blanc MI'
p297
F-4.0
sS'Lookout Mountain TN'
p298
F-4.0
sS'Houston TX'
p299
F-5.0
sS'Gainesville TX'
p300
F-5.0
sS'Fort Myers FL'
p301
F-4.0
sS'Shelby Township MI'
p302
F-4.0
sS'Richardson TX'
p303
F-5.0
sS'College Station TX'
p304
F-5.0
sS'Crown Point IN'
p305
F-5.0
sS'Evanston IL'
p306
F-5.0
sS'Ashland KY'
p307
F-4.0
sS'Allen TX'
p308
F-5.0
sS'Mission KS'
p309
F-5.0
sS'Vero Beach FL'
p310
F-4.0
sS'Midland MI'
p311
F-4.0
sS'Little Silver NJ'
p312
F-4.0
sS'Lake Worth FL'
p313
F-4.0
sS'The Woodlands TX'
p314
F-5.0
sS'Clearwater FL'
p315
F-4.0
sS'Miami Shores FL'
p316
F-4.0
sS'Lakeside Park KY'
p317
F-4.0
sS'Overland Park KS'
p318
F-5.0
sS'Sebring FL'
p319
F-4.0
sS'Brownsville TX'
p320
F-5.0
sS'Honolulu HI'
p321
F-10.0
sS'Leland MI'
p322
F-4.0
sS'Media PA'
p323
F-4.0
sS'Burlington MA'
p324
F-4.0
sS'Sanford FL'
p325
F-4.0
sS'Myrtle Creek OR'
p326
F-7.0
sS'Hialeah FL'
p327
F-4.0
sS'Eugene OR'
p328
F-7.0
sS'Crestview FL'
p329
F-5.0
sS'Beverly Shores IN'
p330
F-5.0
sS'Key Biscayne FL'
p331
F-4.0
sS'Columbus IN'
p332
F-4.0
sS'Valparaiso IN'
p333
F-5.0
sS'Jupiter FL'
p334
F-4.0
sS'Bal Harbour FL'
p335
F-4.0
sS'Charleston IL'
p336
F-5.0
sS'Saline MI'
p337
F-4.0
sS'Evansville IN'
p338
F-5.0
sS'Portland OR'
p339
F-7.0
sS'Dpo AP'
p340
F5.5
sS'Anchorage AK'
p341
F-8.0
sS'Midland TX'
p342
F-5.0
sS'Dallas TX'
p343
F-5.0
sS'Harbor Springs MI'
p344
F-4.0
sS'Medford OR'
p345
F-7.0
sS'Lexington KY'
p346
F-4.0
sS'Argyle TX'
p347
F-5.0
sS'West Palm Beach FL'
p348
F-4.0
sS'Lithia FL'
p349
F-4.0
sS'Miami Beach FL'
p350
F-4.0
sS'Rochester MN'
p351
F-5.0
sS'Rochester MI'
p352
F-4.0
sS'Northville MI'
p353
F-4.0
sS'Pembroke Pines FL'
p354
F-4.0
sS'Harlan IN'
p355
F-4.0
sS'Doral FL'
p356
F-4.0
sS'Palm City FL'
p357
F-4.0
sS'Sunrise FL'
p358
F-4.0
sS'Fort Lauderdale FL'
p359
F-4.0
sS'Grosse Pointe Farm MI'
p360
F-4.0
sS'Pampa TX'
p361
F-5.0
sS'Riverview FL'
p362
F-4.0
sS'Ferndale MI'
p363
F-4.0
sS'Coral Springs FL'
p364
F-4.0
sS'Lakewood Ranch FL'
p365
F-4.0
sS'League City TX'
p366
F-5.0
sS'Jacksonville FL'
p367
F-4.0
sS'Arlington Heights IL'
p368
F-5.0
sS'Philadelphia PA'
p369
F-4.0
sS'Round Lake IL'
p370
F-5.0
sS'Temple Terrace FL'
p371
F-4.0
sS'Ponte Vedra Beach FL'
p372
F-4.0
sS'Conroe TX'
p373
F-5.0
sS'Germantown TN'
p374
F-5.0
sS'Grosse Pointe Wood MI'
p375
F-4.0
sS'Richland MI'
p376
F-4.0
sS'Atlanta GA'
p377
F-4.0
sS'Cordova TN'
p378
F-5.0
sS'Titusville FL'
p379
F-4.0
sS'Boerne TX'
p380
F-5.0
sS'Plantation FL'
p381
F-4.0
sS'Aurora IL'
p382
F-5.0
sS'Livonia MI'
p383
F-4.0
sS'Hoboken NJ'
p384
F-4.0
sS'Holland MI'
p385
F-4.0
s.